target datalayout = "e-m:e-p270:32:32-p271:32:32-p272:64:64-i64:64-i128:128-f80:128-n8:16:32:64-S128"
target triple = "x86_64-pc-linux-gnu"

%struct.re_pattern_buffer = type { ptr, i32, i32, i32, i32, i32, i32, i32, i32, i32, i32, i32, i32, i32, ptr, ptr, ptr, ptr, i32, i32, i32, i32, i64, i64, i32, ptr, ptr, [256 x i8], ptr, ptr, i64, i64, i64, ptr }

; Function Attrs: alwaysinline nounwind
define internal ptr @memcpy.inline(ptr noalias nonnull %0, ptr noalias nonnull %1, i64 %2) #7 {
  %4 = alloca ptr, align 8
  %5 = alloca ptr, align 8
  %6 = alloca i64, align 8
  store ptr %0, ptr %4, align 8, !tbaa !36
  store ptr %1, ptr %5, align 8, !tbaa !36
  store i64 %2, ptr %6, align 8, !tbaa !14
  %7 = load ptr, ptr %4, align 8, !tbaa !36
  %8 = load ptr, ptr %5, align 8, !tbaa !36
  %9 = load i64, ptr %6, align 8, !tbaa !14
  %10 = load ptr, ptr %4, align 8, !tbaa !36
  %11 = call i64 @llvm.objectsize.i64.p0(ptr %10, i1 false, i1 true, i1 false)
  %12 = call ptr @__memcpy_chk(ptr noundef %7, ptr noundef %8, i64 noundef %9, i64 noundef %11) #11
  ret ptr %12
}

; Function Attrs: nounwind sspstrong uwtable
define internal i32 @add_abs_addr(ptr noundef %0, i32 noundef %1) #0 {
  %3 = alloca i32, align 4
  %4 = alloca ptr, align 8
  %5 = alloca i32, align 4
  %6 = alloca i32, align 4
  %7 = alloca i32, align 4
  %8 = alloca ptr, align 8
  %9 = alloca i32, align 4
  store ptr %0, ptr %4, align 8, !tbaa !21
  store i32 %1, ptr %5, align 4, !tbaa !7
  call void @llvm.lifetime.start.p0(i64 4, ptr %6) #11
  %10 = load i32, ptr %5, align 4, !tbaa !7
  store i32 %10, ptr %6, align 4, !tbaa !7
  br label %11

11:                                               ; preds = %2
  call void @llvm.lifetime.start.p0(i64 4, ptr %7) #11
  %12 = load ptr, ptr %4, align 8, !tbaa !21
  %13 = getelementptr inbounds nuw %struct.re_pattern_buffer, ptr %12, i32 0, i32 1
  %14 = load i32, ptr %13, align 8, !tbaa !55
  %15 = add i32 %14, 4
  store i32 %15, ptr %7, align 4, !tbaa !7
  %16 = load ptr, ptr %4, align 8, !tbaa !21
  %17 = getelementptr inbounds nuw %struct.re_pattern_buffer, ptr %16, i32 0, i32 2
  %18 = load i32, ptr %17, align 4, !tbaa !41
  %19 = load i32, ptr %7, align 4, !tbaa !7
  %20 = icmp ult i32 %18, %19
  br i1 %20, label %21, label %55

21:                                               ; preds = %11
  br label %22

22:                                               ; preds = %21
  call void @llvm.lifetime.start.p0(i64 8, ptr %8) #11
  br label %23

23:                                               ; preds = %28, %22
  %24 = load ptr, ptr %4, align 8, !tbaa !21
  %25 = getelementptr inbounds nuw %struct.re_pattern_buffer, ptr %24, i32 0, i32 2
  %26 = load i32, ptr %25, align 4, !tbaa !41
  %27 = mul i32 %26, 2
  store i32 %27, ptr %25, align 4, !tbaa !41
  br label %28

28:                                               ; preds = %23
  %29 = load ptr, ptr %4, align 8, !tbaa !21
  %30 = getelementptr inbounds nuw %struct.re_pattern_buffer, ptr %29, i32 0, i32 2
  %31 = load i32, ptr %30, align 4, !tbaa !41
  %32 = load i32, ptr %7, align 4, !tbaa !7
  %33 = icmp ult i32 %31, %32
  br i1 %33, label %23, label %34, !llvm.loop !310

34:                                               ; preds = %28
  %35 = load ptr, ptr %4, align 8, !tbaa !21
  %36 = getelementptr inbounds nuw %struct.re_pattern_buffer, ptr %35, i32 0, i32 0
  %37 = load ptr, ptr %36, align 8, !tbaa !23
  %38 = load ptr, ptr %4, align 8, !tbaa !21
  %39 = getelementptr inbounds nuw %struct.re_pattern_buffer, ptr %38, i32 0, i32 2
  %40 = load i32, ptr %39, align 4, !tbaa !41
  %41 = zext i32 %40 to i64
  %42 = call ptr @realloc(ptr noundef %37, i64 noundef %41) #12
  store ptr %42, ptr %8, align 8, !tbaa !35
  %43 = load ptr, ptr %8, align 8, !tbaa !35
  %44 = icmp eq ptr %43, null
  br i1 %44, label %45, label %46

45:                                               ; preds = %34
  store i32 -5, ptr %3, align 4
  store i32 1, ptr %9, align 4
  br label %50

46:                                               ; preds = %34
  %47 = load ptr, ptr %8, align 8, !tbaa !35
  %48 = load ptr, ptr %4, align 8, !tbaa !21
  %49 = getelementptr inbounds nuw %struct.re_pattern_buffer, ptr %48, i32 0, i32 0
  store ptr %47, ptr %49, align 8, !tbaa !23
  store i32 0, ptr %9, align 4
  br label %50

50:                                               ; preds = %46, %45
  call void @llvm.lifetime.end.p0(i64 8, ptr %8) #11
  %51 = load i32, ptr %9, align 4
  switch i32 %51, label %75 [
    i32 0, label %52
  ]

52:                                               ; preds = %50
  br label %53

53:                                               ; preds = %52
  br label %54

54:                                               ; preds = %53
  br label %55

55:                                               ; preds = %54, %11
  %56 = load ptr, ptr %4, align 8, !tbaa !21
  %57 = getelementptr inbounds nuw %struct.re_pattern_buffer, ptr %56, i32 0, i32 0
  %58 = load ptr, ptr %57, align 8, !tbaa !23
  %59 = load ptr, ptr %4, align 8, !tbaa !21
  %60 = getelementptr inbounds nuw %struct.re_pattern_buffer, ptr %59, i32 0, i32 1
  %61 = load i32, ptr %60, align 8, !tbaa !55
  %62 = zext i32 %61 to i64
  %63 = getelementptr i8, ptr %58, i64 %62
  %64 = call ptr @memcpy.inline(ptr noundef %63, ptr noundef %6, i64 noundef 4) #11
  %65 = load ptr, ptr %4, align 8, !tbaa !21
  %66 = getelementptr inbounds nuw %struct.re_pattern_buffer, ptr %65, i32 0, i32 1
  %67 = load i32, ptr %66, align 8, !tbaa !55
  %68 = load i32, ptr %7, align 4, !tbaa !7
  %69 = icmp ult i32 %67, %68
  br i1 %69, label %70, label %74

70:                                               ; preds = %55
  %71 = load i32, ptr %7, align 4, !tbaa !7
  %72 = load ptr, ptr %4, align 8, !tbaa !21
  %73 = getelementptr inbounds nuw %struct.re_pattern_buffer, ptr %72, i32 0, i32 1
  store i32 %71, ptr %73, align 8, !tbaa !55
  br label %74

74:                                               ; preds = %70, %55
  store i32 0, ptr %9, align 4
  br label %75

75:                                               ; preds = %74, %50
  call void @llvm.lifetime.end.p0(i64 4, ptr %7) #11
  %76 = load i32, ptr %9, align 4
  switch i32 %76, label %80 [
    i32 0, label %77
  ]

77:                                               ; preds = %75
  br label %78

78:                                               ; preds = %77
  br label %79

79:                                               ; preds = %78
  store i32 0, ptr %3, align 4
  store i32 1, ptr %9, align 4
  br label %80

80:                                               ; preds = %79, %75
  call void @llvm.lifetime.end.p0(i64 4, ptr %6) #11
  %81 = load i32, ptr %3, align 4
  ret i32 %81
}